target datalayout = "e-m:e-p270:32:32-p271:32:32-p272:64:64-i64:64-i128:128-f80:128-n8:16:32:64-S128"
target triple = "x86_64-pc-linux-gnu"

%"class.llvm::StringRef" = type { ptr, i64 }
%"class.clang::comments::Token" = type { %"class.clang::SourceLocation", i32, i32, i32, ptr }
%"class.clang::SourceLocation" = type { i32 }
%"struct.std::pair" = type { %"class.clang::FileID", i32 }
%"class.clang::FileID" = type { i32 }

; Function Attrs: mustprogress nounwind uwtable
define linkonce_odr hidden void @_ZN4llvm9StringRefC2EPKcm(ptr noundef nonnull align 8 dereferenceable(16) %0, ptr noundef %1, i64 noundef %2) unnamed_addr #0 comdat align 2 {
  %4 = alloca ptr, align 8
  %5 = alloca ptr, align 8
  %6 = alloca i64, align 8
  store ptr %0, ptr %4, align 8
  store ptr %1, ptr %5, align 8
  store i64 %2, ptr %6, align 8
  %7 = load ptr, ptr %4, align 8
  %8 = getelementptr inbounds nuw %"class.llvm::StringRef", ptr %7, i32 0, i32 0
  %9 = load ptr, ptr %5, align 8
  store ptr %9, ptr %8, align 8
  %10 = getelementptr inbounds nuw %"class.llvm::StringRef", ptr %7, i32 0, i32 1
  %11 = load i64, ptr %6, align 8
  store i64 %11, ptr %10, align 8
  ret void
}

; Function Attrs: mustprogress nounwind willreturn memory(read) uwtable
define linkonce_odr hidden noundef i32 @_ZNK5clang8comments5Token9getLengthEv(ptr noundef nonnull align 8 dereferenceable(24) %0) #3 comdat align 2 {
  %2 = alloca ptr, align 8
  store ptr %0, ptr %2, align 8
  %3 = load ptr, ptr %2, align 8
  %4 = getelementptr inbounds nuw %"class.clang::comments::Token", ptr %3, i32 0, i32 3
  %5 = load i32, ptr %4, align 4
  ret i32 %5
}

; Function Attrs: mustprogress nounwind uwtable
define linkonce_odr hidden noundef ptr @_ZNK4llvm9StringRef4dataEv(ptr noundef nonnull align 8 dereferenceable(16) %0) #0 comdat align 2 {
  %2 = alloca ptr, align 8
  store ptr %0, ptr %2, align 8
  %3 = load ptr, ptr %2, align 8
  %4 = getelementptr inbounds nuw %"class.llvm::StringRef", ptr %3, i32 0, i32 0
  %5 = load ptr, ptr %4, align 8
  ret ptr %5
}

; Function Attrs: mustprogress nounwind uwtable
define linkonce_odr hidden void @_ZN4llvm9StringRefC2Ev(ptr noundef nonnull align 8 dereferenceable(16) %0) unnamed_addr #0 comdat align 2 {
  %2 = alloca ptr, align 8
  store ptr %0, ptr %2, align 8
  %3 = load ptr, ptr %2, align 8
  %4 = getelementptr inbounds nuw %"class.llvm::StringRef", ptr %3, i32 0, i32 0
  store ptr null, ptr %4, align 8
  %5 = getelementptr inbounds nuw %"class.llvm::StringRef", ptr %3, i32 0, i32 1
  store i64 0, ptr %5, align 8
  ret void
}

; Function Attrs: mustprogress nounwind willreturn memory(read) uwtable
define linkonce_odr hidden i32 @_ZNK5clang8comments5Token11getLocationEv(ptr noundef nonnull align 8 dereferenceable(24) %0) #3 comdat align 2 {
  %2 = alloca %"class.clang::SourceLocation", align 4
  %3 = alloca ptr, align 8
  store ptr %0, ptr %3, align 8
  %4 = load ptr, ptr %3, align 8
  %5 = getelementptr inbounds nuw %"class.clang::comments::Token", ptr %4, i32 0, i32 0
  call void @llvm.memcpy.p0.p0.i64(ptr align 4 %2, ptr align 8 %5, i64 4, i1 false)
  %6 = getelementptr inbounds nuw %"class.clang::SourceLocation", ptr %2, i32 0, i32 0
  %7 = load i32, ptr %6, align 4
  ret i32 %7
}

; Function Attrs: mustprogress nounwind uwtable
define dso_local { ptr, i64 } @_ZNK5clang8comments5Lexer11getSpellingERKNS0_5TokenERKNS_13SourceManagerE(ptr noundef nonnull align 8 dereferenceable(104) %0, ptr noundef nonnull align 8 dereferenceable(24) %1, ptr noundef nonnull align 8 dereferenceable(696) %2) #0 align 2 {
  %4 = alloca %"class.llvm::StringRef", align 8
  %5 = alloca ptr, align 8
  %6 = alloca ptr, align 8
  %7 = alloca ptr, align 8
  %8 = alloca %"class.clang::SourceLocation", align 4
  %9 = alloca %"struct.std::pair", align 4
  %10 = alloca %"class.clang::SourceLocation", align 4
  %11 = alloca i8, align 1
  %12 = alloca %"class.llvm::StringRef", align 8
  %13 = alloca %"class.clang::FileID", align 4
  %14 = alloca ptr, align 8
  store ptr %0, ptr %5, align 8
  store ptr %1, ptr %6, align 8
  store ptr %2, ptr %7, align 8
  %15 = load ptr, ptr %6, align 8
  %16 = call i32 @_ZNK5clang8comments5Token11getLocationEv(ptr noundef nonnull align 8 dereferenceable(24) %15) #10
  %17 = getelementptr inbounds nuw %"class.clang::SourceLocation", ptr %8, i32 0, i32 0
  store i32 %16, ptr %17, align 4
  %18 = load ptr, ptr %7, align 8
  call void @llvm.memcpy.p0.p0.i64(ptr align 4 %10, ptr align 4 %8, i64 4, i1 false)
  %19 = getelementptr inbounds nuw %"class.clang::SourceLocation", ptr %10, i32 0, i32 0
  %20 = load i32, ptr %19, align 4
  %21 = call i64 @_ZNK5clang13SourceManager16getDecomposedLocENS_14SourceLocationE(ptr noundef nonnull align 8 dereferenceable(696) %18, i32 %20)
  store i64 %21, ptr %9, align 4
  store i8 0, ptr %11, align 1
  %22 = load ptr, ptr %7, align 8
  %23 = getelementptr inbounds nuw %"struct.std::pair", ptr %9, i32 0, i32 0
  call void @llvm.memcpy.p0.p0.i64(ptr align 4 %13, ptr align 4 %23, i64 4, i1 false)
  %24 = getelementptr inbounds nuw %"class.clang::FileID", ptr %13, i32 0, i32 0
  %25 = load i32, ptr %24, align 4
  %26 = call { ptr, i64 } @_ZNK5clang13SourceManager13getBufferDataENS_6FileIDEPb(ptr noundef nonnull align 8 dereferenceable(696) %22, i32 %25, ptr noundef %11)
  %27 = getelementptr inbounds nuw { ptr, i64 }, ptr %12, i32 0, i32 0
  %28 = extractvalue { ptr, i64 } %26, 0
  store ptr %28, ptr %27, align 8
  %29 = getelementptr inbounds nuw { ptr, i64 }, ptr %12, i32 0, i32 1
  %30 = extractvalue { ptr, i64 } %26, 1
  store i64 %30, ptr %29, align 8
  %31 = load i8, ptr %11, align 1
  %32 = trunc i8 %31 to i1
  br i1 %32, label %33, label %34

33:                                               ; preds = %3
  call void @llvm.memset.p0.i64(ptr align 8 %4, i8 0, i64 16, i1 false)
  call void @_ZN4llvm9StringRefC2Ev(ptr noundef nonnull align 8 dereferenceable(16) %4) #11
  br label %44

34:                                               ; preds = %3
  %35 = call noundef ptr @_ZNK4llvm9StringRef4dataEv(ptr noundef nonnull align 8 dereferenceable(16) %12)
  %36 = getelementptr inbounds nuw %"struct.std::pair", ptr %9, i32 0, i32 1
  %37 = load i32, ptr %36, align 4
  %38 = zext i32 %37 to i64
  %39 = getelementptr inbounds i8, ptr %35, i64 %38
  store ptr %39, ptr %14, align 8
  %40 = load ptr, ptr %14, align 8
  %41 = load ptr, ptr %6, align 8
  %42 = call noundef i32 @_ZNK5clang8comments5Token9getLengthEv(ptr noundef nonnull align 8 dereferenceable(24) %41) #10
  %43 = zext i32 %42 to i64
  call void @_ZN4llvm9StringRefC2EPKcm(ptr noundef nonnull align 8 dereferenceable(16) %4, ptr noundef %40, i64 noundef %43)
  br label %44

44:                                               ; preds = %34, %33
  %45 = load { ptr, i64 }, ptr %4, align 8
  ret { ptr, i64 } %45
}