; Function Attrs: mustprogress nounwind uwtable
define dso_local { ptr, i64 } @_ZNK5clang8comments5Lexer11getSpellingERKNS0_5TokenERKNS_13SourceManagerE(ptr nocapture noundef nonnull readnone align 8 dereferenceable(104) %0, ptr nocapture noundef nonnull readonly align 8 dereferenceable(24) %1, ptr noundef nonnull align 8 dereferenceable(696) %2) local_unnamed_addr #0 align 2 {
  %4 = alloca i8, align 1
  %.sroa.0.0.copyload.i = load i32, ptr %1, align 8
  %5 = tail call i64 @_ZNK5clang13SourceManager16getDecomposedLocENS_14SourceLocationE(ptr noundef nonnull align 8 dereferenceable(696) %2, i32 %.sroa.0.0.copyload.i)
  %.sroa.02.0.extract.trunc = trunc i64 %5 to i32
  store i8 0, ptr %4, align 1
  %6 = call { ptr, i64 } @_ZNK5clang13SourceManager13getBufferDataENS_6FileIDEPb(ptr noundef nonnull align 8 dereferenceable(696) %2, i32 %.sroa.02.0.extract.trunc, ptr noundef nonnull %4) #18
  %7 = extractvalue { ptr, i64 } %6, 0
  %8 = load i8, ptr %4, align 1
  %9 = trunc i8 %8 to i1
  %.sroa.2.0.extract.shift = lshr i64 %5, 32
  %10 = getelementptr inbounds i8, ptr %7, i64 %.sroa.2.0.extract.shift
  %11 = getelementptr inbounds nuw i8, ptr %1, i64 12
  %12 = load i32, ptr %11, align 4
  %13 = zext i32 %12 to i64
  %.sroa.4.0 = select i1 %9, i64 0, i64 %13
  %.sroa.08.0 = select i1 %9, ptr null, ptr %10
  %.fca.0.insert = insertvalue { ptr, i64 } poison, ptr %.sroa.08.0, 0
  %.fca.1.insert = insertvalue { ptr, i64 } %.fca.0.insert, i64 %.sroa.4.0, 1
  ret { ptr, i64 } %.fca.1.insert
}